target datalayout = "e-m:e-p270:32:32-p271:32:32-p272:64:64-i64:64-i128:128-f80:128-n8:16:32:64-S128"
target triple = "x86_64-pc-linux-gnu"

@.str.363 = private unnamed_addr constant [32 x i8] c"%.8f degrees (%.0f %.0f' %.2f\22)\00", align 1

; Function Attrs: null_pointer_is_valid sspstrong uwtable
define internal void @prt_sa32(ptr noundef %0, i32 noundef %1) #0 {
  %3 = alloca ptr, align 8
  %4 = alloca i32, align 4
  %5 = alloca double, align 8
  %6 = alloca double, align 8
  %7 = alloca double, align 8
  %8 = alloca double, align 8
  store ptr %0, ptr %3, align 8
  store i32 %1, ptr %4, align 4
  call void @llvm.lifetime.start.p0(i64 8, ptr %5) #4
  call void @llvm.lifetime.start.p0(i64 8, ptr %6) #4
  call void @llvm.lifetime.start.p0(i64 8, ptr %7) #4
  call void @llvm.lifetime.start.p0(i64 8, ptr %8) #4
  %9 = load i32, ptr %4, align 4
  %10 = sitofp i32 %9 to double
  store double %10, ptr %8, align 8
  %11 = load double, ptr %8, align 8
  %12 = fdiv double %11, 0x41D0000000000000
  store double %12, ptr %8, align 8
  %13 = load double, ptr %8, align 8
  %14 = fmul double %13, 4.500000e+01
  store double %14, ptr %8, align 8
  %15 = load double, ptr %8, align 8
  %16 = call double @llvm.floor.f64(double %15)
  store double %16, ptr %5, align 8
  %17 = load double, ptr %8, align 8
  %18 = load double, ptr %5, align 8
  %19 = fsub double %17, %18
  %20 = fmul double 6.000000e+01, %19
  %21 = call double @llvm.floor.f64(double %20)
  store double %21, ptr %6, align 8
  %22 = load double, ptr %8, align 8
  %23 = load double, ptr %5, align 8
  %24 = fsub double %22, %23
  %25 = load double, ptr %6, align 8
  %26 = fneg double %25
  %27 = call double @llvm.fmuladd.f64(double 6.000000e+01, double %24, double %26)
  %28 = fmul double 6.000000e+01, %27
  store double %28, ptr %7, align 8
  %29 = load ptr, ptr %3, align 8
  %30 = load ptr, ptr %3, align 8
  %31 = call i64 @llvm.objectsize.i64.p0(ptr %30, i1 false, i1 true, i1 true)
  %32 = load double, ptr %8, align 8
  %33 = load double, ptr %5, align 8
  %34 = load double, ptr %6, align 8
  %35 = load double, ptr %7, align 8
  %36 = call i32 (ptr, i64, i32, i64, ptr, ...) @__snprintf_chk(ptr noundef %29, i64 noundef 240, i32 noundef 2, i64 noundef %31, ptr noundef @.str.363, double noundef %32, double noundef %33, double noundef %34, double noundef %35)
  call void @llvm.lifetime.end.p0(i64 8, ptr %8) #4
  call void @llvm.lifetime.end.p0(i64 8, ptr %7) #4
  call void @llvm.lifetime.end.p0(i64 8, ptr %6) #4
  call void @llvm.lifetime.end.p0(i64 8, ptr %5) #4
  ret void
}