; Function Attrs: nofree null_pointer_is_valid sspstrong uwtable
define internal void @prt_sa32(ptr noundef %0, i32 noundef %1) #1 {
  %3 = sitofp i32 %1 to double
  %4 = fmul double %3, 0x3E10000000000000
  %5 = fmul double %4, 4.500000e+01
  %6 = tail call double @llvm.floor.f64(double %5)
  %7 = fsub double %5, %6
  %8 = fmul double %7, 6.000000e+01
  %9 = tail call double @llvm.floor.f64(double %8)
  %10 = fneg double %9
  %11 = tail call double @llvm.fmuladd.f64(double %7, double 6.000000e+01, double %10)
  %12 = fmul double %11, 6.000000e+01
  %13 = tail call i32 (ptr, i64, i32, i64, ptr, ...) @__snprintf_chk(ptr noundef %0, i64 noundef 240, i32 noundef 2, i64 noundef -1, ptr noundef nonnull @.str.363, double noundef %5, double noundef %6, double noundef %9, double noundef %12)
  ret void
}